target datalayout = "e-m:e-p270:32:32-p271:32:32-p272:64:64-i64:64-i128:128-f80:128-n8:16:32:64-S128"
target triple = "x86_64-pc-linux-gnu"

%"class.(anonymous namespace)::X86FixupInstTuningPass" = type { %"class.llvm::MachineFunctionPass", ptr, ptr, ptr }
%"class.llvm::MachineFunctionPass" = type { %"class.llvm::FunctionPass.base", %"class.llvm::MachineFunctionProperties", %"class.llvm::MachineFunctionProperties", %"class.llvm::MachineFunctionProperties" }
%"class.llvm::FunctionPass.base" = type { %"class.llvm::Pass.base" }
%"class.llvm::Pass.base" = type <{ ptr, ptr, ptr, i32 }>
%"class.llvm::MachineFunctionProperties" = type { %"class.std::bitset" }
%"class.std::bitset" = type { %"struct.std::_Base_bitset" }
%"struct.std::_Base_bitset" = type { i64 }
%class.anon.191 = type { ptr, ptr, ptr, ptr }
%"class.llvm::ilist_node_impl.149" = type { %"class.llvm::ilist_node_base.150" }
%"class.llvm::ilist_node_base.150" = type { %"class.llvm::ilist_detail::node_base_prevnext.151" }
%"class.llvm::ilist_detail::node_base_prevnext.151" = type { %"class.llvm::PointerIntPair", ptr }
%"class.llvm::PointerIntPair" = type { %"struct.llvm::detail::PunnedPointer" }
%"struct.llvm::detail::PunnedPointer" = type { [8 x i8] }
%"class.llvm::MachineInstr" = type <{ %"class.llvm::ilist_node_with_parent.186", ptr, ptr, ptr, [3 x i8], %"class.llvm::ArrayRecycler<llvm::MachineOperand>::Capacity", i32, %"class.llvm::PointerSumType", %"class.llvm::DebugLoc", i32, i16, [2 x i8] }>
%"class.llvm::ilist_node_with_parent.186" = type { %"class.llvm::ilist_node.187" }
%"class.llvm::ilist_node.187" = type { %"class.llvm::ilist_node_impl.149" }
%"class.llvm::ArrayRecycler<llvm::MachineOperand>::Capacity" = type { i8 }
%"class.llvm::PointerSumType" = type { %"union.llvm::PointerSumType<llvm::MachineInstr::ExtraInfoInlineKinds, llvm::PointerSumTypeMember<0, llvm::MachineMemOperand *>, llvm::PointerSumTypeMember<1, llvm::MCSymbol *>, llvm::PointerSumTypeMember<2, llvm::MCSymbol *>, llvm::PointerSumTypeMember<3, llvm::MachineInstr::ExtraInfo *>>::StorageT" }
%"union.llvm::PointerSumType<llvm::MachineInstr::ExtraInfoInlineKinds, llvm::PointerSumTypeMember<0, llvm::MachineMemOperand *>, llvm::PointerSumTypeMember<1, llvm::MCSymbol *>, llvm::PointerSumTypeMember<2, llvm::MCSymbol *>, llvm::PointerSumTypeMember<3, llvm::MachineInstr::ExtraInfo *>>::StorageT" = type { i64 }
%"class.llvm::DebugLoc" = type { %"class.llvm::TypedTrackingMDRef" }
%"class.llvm::TypedTrackingMDRef" = type { %"class.llvm::TrackingMDRef" }
%"class.llvm::TrackingMDRef" = type { ptr }
%"class.llvm::MCInstrDesc" = type { i16, i16, i8, i8, i16, i8, i8, i16, i16, i64, i64 }
%"class.llvm::MachineOperand" = type { i32, %union.anon.200, ptr, %"union.llvm::MachineOperand::ContentsUnion" }
%union.anon.200 = type { i32 }
%"union.llvm::MachineOperand::ContentsUnion" = type { %"class.llvm::ArrayRef.201" }
%"class.llvm::ArrayRef.201" = type { ptr, i64 }
%"class.llvm::MCInstrInfo" = type <{ ptr, ptr, ptr, ptr, ptr, i32, [4 x i8] }>

; Function Attrs: mustprogress nounwind uwtable
define linkonce_odr hidden void @_ZN4llvm14MachineOperand13ContentsUnionC2Ev(ptr noundef nonnull align 8 dereferenceable(16) %0) unnamed_addr #1 comdat align 2 {
  %2 = alloca ptr, align 8
  store ptr %0, ptr %2, align 8
  ret void
}

; Function Attrs: mustprogress nounwind uwtable
define linkonce_odr hidden void @_ZN4llvm14MachineOperand6setImmEl(ptr noundef nonnull align 8 dereferenceable(32) %0, i64 noundef %1) #1 comdat align 2 {
  %3 = alloca ptr, align 8
  %4 = alloca i64, align 8
  store ptr %0, ptr %3, align 8
  store i64 %1, ptr %4, align 8
  %5 = load ptr, ptr %3, align 8
  %6 = load i64, ptr %4, align 8
  %7 = getelementptr inbounds nuw %"class.llvm::MachineOperand", ptr %5, i32 0, i32 3
  store i64 %6, ptr %7, align 8
  ret void
}

; Function Attrs: mustprogress nounwind uwtable
define linkonce_odr hidden void @_ZN4llvm14MachineOperandC2ENS0_18MachineOperandTypeE(ptr noundef nonnull align 8 dereferenceable(32) %0, i8 noundef zeroext %1) unnamed_addr #1 comdat align 2 {
  %3 = alloca ptr, align 8
  %4 = alloca i8, align 1
  store ptr %0, ptr %3, align 8
  store i8 %1, ptr %4, align 1
  %5 = load ptr, ptr %3, align 8
  %6 = load i8, ptr %4, align 1
  %7 = zext i8 %6 to i32
  %8 = load i32, ptr %5, align 8
  %9 = and i32 %7, 255
  %10 = and i32 %8, -256
  %11 = or i32 %10, %9
  store i32 %11, ptr %5, align 8
  %12 = load i32, ptr %5, align 8
  %13 = and i32 %12, -1048321
  %14 = or i32 %13, 0
  store i32 %14, ptr %5, align 8
  %15 = getelementptr inbounds nuw %"class.llvm::MachineOperand", ptr %5, i32 0, i32 2
  store ptr null, ptr %15, align 8
  %16 = getelementptr inbounds nuw %"class.llvm::MachineOperand", ptr %5, i32 0, i32 3
  call void @_ZN4llvm14MachineOperand13ContentsUnionC2Ev(ptr noundef nonnull align 8 dereferenceable(16) %16)
  ret void
}

; Function Attrs: mustprogress nounwind uwtable
define linkonce_odr hidden void @_ZN4llvm14MachineOperand9CreateImmEl(ptr dead_on_unwind noalias writable sret(%"class.llvm::MachineOperand") align 8 %0, i64 noundef %1) #1 comdat align 2 {
  %3 = alloca i64, align 8
  store i64 %1, ptr %3, align 8
  call void @_ZN4llvm14MachineOperandC2ENS0_18MachineOperandTypeE(ptr noundef nonnull align 8 dereferenceable(32) %0, i8 noundef zeroext 1)
  %4 = load i64, ptr %3, align 8
  call void @_ZN4llvm14MachineOperand6setImmEl(ptr noundef nonnull align 8 dereferenceable(32) %0, i64 noundef %4)
  ret void
}

; Function Attrs: mustprogress nounwind uwtable
define linkonce_odr hidden noundef nonnull align 8 dereferenceable(32) ptr @_ZNK4llvm11MCInstrInfo3getEj(ptr noundef nonnull align 8 dereferenceable(44) %0, i32 noundef %1) #1 comdat align 2 {
  %3 = alloca ptr, align 8
  %4 = alloca i32, align 4
  store ptr %0, ptr %3, align 8
  store i32 %1, ptr %4, align 4
  %5 = load ptr, ptr %3, align 8
  %6 = getelementptr inbounds nuw %"class.llvm::MCInstrInfo", ptr %5, i32 0, i32 0
  %7 = load ptr, ptr %6, align 8
  %8 = load i32, ptr %4, align 4
  %9 = zext i32 %8 to i64
  %10 = sub i64 0, %9
  %11 = getelementptr inbounds %"class.llvm::MCInstrDesc", ptr %7, i64 %10
  ret ptr %11
}

; Function Attrs: mustprogress nounwind uwtable
define linkonce_odr hidden noundef i64 @_ZNK4llvm14MachineOperand6getImmEv(ptr noundef nonnull align 8 dereferenceable(32) %0) #1 comdat align 2 {
  %2 = alloca ptr, align 8
  store ptr %0, ptr %2, align 8
  %3 = load ptr, ptr %2, align 8
  %4 = getelementptr inbounds nuw %"class.llvm::MachineOperand", ptr %3, i32 0, i32 3
  %5 = load i64, ptr %4, align 8
  ret i64 %5
}

; Function Attrs: mustprogress nounwind uwtable
define linkonce_odr hidden noundef nonnull align 8 dereferenceable(32) ptr @_ZN4llvm12MachineInstr10getOperandEj(ptr noundef nonnull align 8 dereferenceable(70) %0, i32 noundef %1) #1 comdat align 2 {
  %3 = alloca ptr, align 8
  %4 = alloca i32, align 4
  store ptr %0, ptr %3, align 8
  store i32 %1, ptr %4, align 4
  %5 = load ptr, ptr %3, align 8
  %6 = getelementptr inbounds nuw %"class.llvm::MachineInstr", ptr %5, i32 0, i32 3
  %7 = load ptr, ptr %6, align 8
  %8 = load i32, ptr %4, align 4
  %9 = zext i32 %8 to i64
  %10 = getelementptr inbounds %"class.llvm::MachineOperand", ptr %7, i64 %9
  ret ptr %10
}

; Function Attrs: mustprogress nounwind uwtable
define internal noundef zeroext i1 @"_ZZN12_GLOBAL__N_122X86FixupInstTuningPass18processInstructionERN4llvm15MachineFunctionERNS1_17MachineBasicBlockERNS1_26MachineInstrBundleIteratorINS1_12MachineInstrELb0EEEENK3$_0clEj"(ptr noundef nonnull align 8 dereferenceable(32) %0, i32 noundef %1) #1 align 2 {
  %3 = alloca i1, align 1
  %4 = alloca ptr, align 8
  %5 = alloca i32, align 4
  %6 = alloca i32, align 4
  %7 = alloca %"class.llvm::MachineOperand", align 8
  store ptr %0, ptr %4, align 8
  store i32 %1, ptr %5, align 4
  %8 = load ptr, ptr %4, align 8
  %9 = getelementptr inbounds nuw %class.anon.191, ptr %8, i32 0, i32 3
  %10 = load ptr, ptr %9, align 8
  %11 = getelementptr inbounds nuw %class.anon.191, ptr %8, i32 0, i32 0
  %12 = load ptr, ptr %11, align 8
  %13 = load i32, ptr %5, align 4
  %14 = call noundef zeroext i1 @"_ZZN12_GLOBAL__N_122X86FixupInstTuningPass18processInstructionERN4llvm15MachineFunctionERNS1_17MachineBasicBlockERNS1_26MachineInstrBundleIteratorINS1_12MachineInstrELb0EEEENK3$_7clEjb"(ptr noundef nonnull align 8 dereferenceable(40) %12, i32 noundef %13, i1 noundef zeroext true)
  br i1 %14, label %16, label %15

15:                                               ; preds = %2
  store i1 false, ptr %3, align 1
  br label %52

16:                                               ; preds = %2
  %17 = getelementptr inbounds nuw %class.anon.191, ptr %8, i32 0, i32 1
  %18 = load ptr, ptr %17, align 8
  %19 = getelementptr inbounds nuw %class.anon.191, ptr %8, i32 0, i32 2
  %20 = load ptr, ptr %19, align 8
  %21 = load i32, ptr %20, align 4
  %22 = sub i32 %21, 1
  %23 = call noundef nonnull align 8 dereferenceable(32) ptr @_ZN4llvm12MachineInstr10getOperandEj(ptr noundef nonnull align 8 dereferenceable(70) %18, i32 noundef %22)
  %24 = call noundef i64 @_ZNK4llvm14MachineOperand6getImmEv(ptr noundef nonnull align 8 dereferenceable(32) %23)
  %25 = trunc i64 %24 to i32
  store i32 %25, ptr %6, align 4
  %26 = getelementptr inbounds nuw %class.anon.191, ptr %8, i32 0, i32 1
  %27 = load ptr, ptr %26, align 8
  %28 = getelementptr inbounds nuw %class.anon.191, ptr %8, i32 0, i32 2
  %29 = load ptr, ptr %28, align 8
  %30 = load i32, ptr %29, align 4
  %31 = sub i32 %30, 1
  call void @_ZN4llvm12MachineInstr13removeOperandEj(ptr noundef nonnull align 8 dereferenceable(70) %27, i32 noundef %31)
  %32 = getelementptr inbounds nuw %class.anon.191, ptr %8, i32 0, i32 1
  %33 = load ptr, ptr %32, align 8
  %34 = getelementptr inbounds nuw %class.anon.191, ptr %8, i32 0, i32 1
  %35 = load ptr, ptr %34, align 8
  %36 = getelementptr inbounds nuw %class.anon.191, ptr %8, i32 0, i32 2
  %37 = load ptr, ptr %36, align 8
  %38 = load i32, ptr %37, align 4
  %39 = sub i32 %38, 2
  %40 = call noundef nonnull align 8 dereferenceable(32) ptr @_ZN4llvm12MachineInstr10getOperandEj(ptr noundef nonnull align 8 dereferenceable(70) %35, i32 noundef %39)
  call void @_ZN4llvm12MachineInstr10addOperandERKNS_14MachineOperandE(ptr noundef nonnull align 8 dereferenceable(70) %33, ptr noundef nonnull align 8 dereferenceable(32) %40)
  %41 = getelementptr inbounds nuw %class.anon.191, ptr %8, i32 0, i32 1
  %42 = load ptr, ptr %41, align 8
  %43 = getelementptr inbounds nuw %"class.(anonymous namespace)::X86FixupInstTuningPass", ptr %10, i32 0, i32 1
  %44 = load ptr, ptr %43, align 8
  %45 = getelementptr inbounds i8, ptr %44, i64 8
  %46 = load i32, ptr %5, align 4
  %47 = call noundef nonnull align 8 dereferenceable(32) ptr @_ZNK4llvm11MCInstrInfo3getEj(ptr noundef nonnull align 8 dereferenceable(44) %45, i32 noundef %46)
  call void @_ZN4llvm12MachineInstr7setDescERKNS_11MCInstrDescE(ptr noundef nonnull align 8 dereferenceable(70) %42, ptr noundef nonnull align 8 dereferenceable(32) %47)
  %48 = getelementptr inbounds nuw %class.anon.191, ptr %8, i32 0, i32 1
  %49 = load ptr, ptr %48, align 8
  %50 = load i32, ptr %6, align 4
  %51 = zext i32 %50 to i64
  call void @_ZN4llvm14MachineOperand9CreateImmEl(ptr dead_on_unwind writable sret(%"class.llvm::MachineOperand") align 8 %7, i64 noundef %51)
  call void @_ZN4llvm12MachineInstr10addOperandERKNS_14MachineOperandE(ptr noundef nonnull align 8 dereferenceable(70) %49, ptr noundef nonnull align 8 dereferenceable(32) %7)
  store i1 true, ptr %3, align 1
  br label %52

52:                                               ; preds = %16, %15
  %53 = load i1, ptr %3, align 1
  ret i1 %53
}