; Function Attrs: mustprogress nounwind uwtable
define internal fastcc noundef zeroext i1 @"_ZZN12_GLOBAL__N_122X86FixupInstTuningPass18processInstructionERN4llvm15MachineFunctionERNS1_17MachineBasicBlockERNS1_26MachineInstrBundleIteratorINS1_12MachineInstrELb0EEEENK3$_0clEj"(ptr nocapture noundef nonnull readonly align 8 dereferenceable(32) %0, i32 noundef %1) unnamed_addr #0 align 2 {
  %3 = alloca %"class.llvm::MachineOperand", align 8
  %4 = getelementptr inbounds nuw i8, ptr %0, i64 24
  %5 = load ptr, ptr %4, align 8
  %6 = load ptr, ptr %0, align 8
  %7 = tail call fastcc noundef zeroext i1 @"_ZZN12_GLOBAL__N_122X86FixupInstTuningPass18processInstructionERN4llvm15MachineFunctionERNS1_17MachineBasicBlockERNS1_26MachineInstrBundleIteratorINS1_12MachineInstrELb0EEEENK3$_7clEjb"(ptr noundef nonnull align 8 dereferenceable(40) %6, i32 noundef %1, i1 noundef zeroext true)
  br i1 %7, label %8, label %40

8:                                                ; preds = %2
  %9 = getelementptr inbounds nuw i8, ptr %0, i64 8
  %10 = load ptr, ptr %9, align 8
  %11 = getelementptr inbounds nuw i8, ptr %0, i64 16
  %12 = load ptr, ptr %11, align 8
  %13 = load i32, ptr %12, align 4
  %14 = add i32 %13, -1
  %15 = getelementptr inbounds nuw i8, ptr %10, i64 32
  %16 = load ptr, ptr %15, align 8
  %17 = zext i32 %14 to i64
  %18 = getelementptr inbounds %"class.llvm::MachineOperand", ptr %16, i64 %17, i32 3
  %19 = load i64, ptr %18, align 8
  tail call void @_ZN4llvm12MachineInstr13removeOperandEj(ptr noundef nonnull align 8 dereferenceable(70) %10, i32 noundef %14) #10
  %20 = load ptr, ptr %9, align 8
  %21 = load ptr, ptr %11, align 8
  %22 = load i32, ptr %21, align 4
  %23 = add i32 %22, -2
  %24 = getelementptr inbounds nuw i8, ptr %20, i64 32
  %25 = load ptr, ptr %24, align 8
  %26 = zext i32 %23 to i64
  %27 = getelementptr inbounds %"class.llvm::MachineOperand", ptr %25, i64 %26
  tail call void @_ZN4llvm12MachineInstr10addOperandERKNS_14MachineOperandE(ptr noundef nonnull align 8 dereferenceable(70) %20, ptr noundef nonnull align 8 dereferenceable(32) %27) #10
  %28 = load ptr, ptr %9, align 8
  %29 = getelementptr inbounds nuw i8, ptr %5, i64 56
  %30 = load ptr, ptr %29, align 8
  %31 = getelementptr inbounds i8, ptr %30, i64 8
  %32 = load ptr, ptr %31, align 8
  %33 = zext i32 %1 to i64
  %34 = sub nsw i64 0, %33
  %35 = getelementptr inbounds %"class.llvm::MCInstrDesc", ptr %32, i64 %34
  tail call void @_ZN4llvm12MachineInstr7setDescERKNS_11MCInstrDescE(ptr noundef nonnull align 8 dereferenceable(70) %28, ptr noundef nonnull align 8 dereferenceable(32) %35) #10
  %36 = load ptr, ptr %9, align 8
  %37 = and i64 %19, 4294967295
  store i32 1, ptr %3, align 8, !alias.scope !7
  %38 = getelementptr inbounds nuw i8, ptr %3, i64 8
  store ptr null, ptr %38, align 8, !alias.scope !7
  %39 = getelementptr inbounds nuw i8, ptr %3, i64 16
  store i64 %37, ptr %39, align 8, !alias.scope !7
  call void @_ZN4llvm12MachineInstr10addOperandERKNS_14MachineOperandE(ptr noundef nonnull align 8 dereferenceable(70) %36, ptr noundef nonnull align 8 dereferenceable(32) %3) #10
  br label %40

40:                                               ; preds = %2, %8
  ret i1 %7
}